target datalayout = "e-m:e-p270:32:32-p271:32:32-p272:64:64-i64:64-i128:128-f80:128-n8:16:32:64-S128"
target triple = "x86_64-pc-linux-gnu"

; Function Attrs: nounwind uwtable
define internal void @BilinearInterp(ptr noundef %0, i32 noundef %1, i32 noundef %2, i32 noundef %3, i32 noundef %4, i32 noundef %5) #0 {
  %7 = alloca ptr, align 8
  %8 = alloca i32, align 4
  %9 = alloca i32, align 4
  %10 = alloca i32, align 4
  %11 = alloca i32, align 4
  %12 = alloca i32, align 4
  %13 = alloca i32, align 4
  %14 = alloca ptr, align 8
  %15 = alloca i32, align 4
  %16 = alloca i32, align 4
  %17 = alloca i32, align 4
  %18 = alloca i32, align 4
  %19 = alloca i32, align 4
  %20 = alloca i32, align 4
  %21 = alloca i32, align 4
  %22 = alloca i32, align 4
  %23 = alloca i32, align 4
  %24 = alloca i32, align 4
  %25 = alloca i32, align 4
  %26 = alloca i32, align 4
  %27 = alloca i32, align 4
  %28 = alloca i32, align 4
  store ptr %0, ptr %7, align 8
  store i32 %1, ptr %8, align 4
  store i32 %2, ptr %9, align 4
  store i32 %3, ptr %10, align 4
  store i32 %4, ptr %11, align 4
  store i32 %5, ptr %12, align 4
  %29 = load ptr, ptr %7, align 8
  store ptr %29, ptr %14, align 8
  store i32 0, ptr %13, align 4
  br label %30

30:                                               ; preds = %241, %6
  %31 = load i32, ptr %13, align 4
  %32 = load i32, ptr %8, align 4
  %33 = icmp slt i32 %31, %32
  br i1 %33, label %34, label %244

34:                                               ; preds = %30
  %35 = load i32, ptr %9, align 4
  %36 = lshr i32 %35, 24
  store i32 %36, ptr %15, align 4
  %37 = load i32, ptr %11, align 4
  %38 = lshr i32 %37, 24
  store i32 %38, ptr %16, align 4
  br label %39

39:                                               ; preds = %34
  %40 = load ptr, ptr %7, align 8
  %41 = getelementptr inbounds i8, ptr %40, i64 0
  %42 = load i8, ptr %41, align 1
  %43 = zext i8 %42 to i32
  store i32 %43, ptr %17, align 4
  %44 = load ptr, ptr %7, align 8
  %45 = getelementptr inbounds i8, ptr %44, i64 4
  %46 = load i8, ptr %45, align 1
  %47 = zext i8 %46 to i32
  store i32 %47, ptr %18, align 4
  %48 = load i32, ptr %17, align 4
  %49 = shl i32 %48, 8
  %50 = load i32, ptr %18, align 4
  %51 = load i32, ptr %17, align 4
  %52 = sub nsw i32 %50, %51
  %53 = load i32, ptr %15, align 4
  %54 = mul nsw i32 %52, %53
  %55 = add nsw i32 %49, %54
  store i32 %55, ptr %19, align 4
  %56 = load ptr, ptr %7, align 8
  %57 = getelementptr inbounds i8, ptr %56, i64 8
  %58 = load i8, ptr %57, align 1
  %59 = zext i8 %58 to i32
  store i32 %59, ptr %17, align 4
  %60 = load ptr, ptr %7, align 8
  %61 = getelementptr inbounds i8, ptr %60, i64 12
  %62 = load i8, ptr %61, align 1
  %63 = zext i8 %62 to i32
  store i32 %63, ptr %18, align 4
  %64 = load i32, ptr %17, align 4
  %65 = shl i32 %64, 8
  %66 = load i32, ptr %18, align 4
  %67 = load i32, ptr %17, align 4
  %68 = sub nsw i32 %66, %67
  %69 = load i32, ptr %15, align 4
  %70 = mul nsw i32 %68, %69
  %71 = add nsw i32 %65, %70
  store i32 %71, ptr %18, align 4
  %72 = load i32, ptr %19, align 4
  %73 = shl i32 %72, 8
  %74 = load i32, ptr %18, align 4
  %75 = load i32, ptr %19, align 4
  %76 = sub nsw i32 %74, %75
  %77 = load i32, ptr %16, align 4
  %78 = mul nsw i32 %76, %77
  %79 = add nsw i32 %73, %78
  store i32 %79, ptr %19, align 4
  %80 = load i32, ptr %19, align 4
  %81 = add nsw i32 %80, 32768
  %82 = ashr i32 %81, 16
  %83 = trunc i32 %82 to i8
  %84 = load ptr, ptr %14, align 8
  %85 = getelementptr inbounds i8, ptr %84, i64 0
  store i8 %83, ptr %85, align 1
  br label %86

86:                                               ; preds = %39
  br label %87

87:                                               ; preds = %86
  %88 = load ptr, ptr %7, align 8
  %89 = getelementptr inbounds i8, ptr %88, i64 1
  %90 = load i8, ptr %89, align 1
  %91 = zext i8 %90 to i32
  store i32 %91, ptr %20, align 4
  %92 = load ptr, ptr %7, align 8
  %93 = getelementptr inbounds i8, ptr %92, i64 5
  %94 = load i8, ptr %93, align 1
  %95 = zext i8 %94 to i32
  store i32 %95, ptr %21, align 4
  %96 = load i32, ptr %20, align 4
  %97 = shl i32 %96, 8
  %98 = load i32, ptr %21, align 4
  %99 = load i32, ptr %20, align 4
  %100 = sub nsw i32 %98, %99
  %101 = load i32, ptr %15, align 4
  %102 = mul nsw i32 %100, %101
  %103 = add nsw i32 %97, %102
  store i32 %103, ptr %22, align 4
  %104 = load ptr, ptr %7, align 8
  %105 = getelementptr inbounds i8, ptr %104, i64 9
  %106 = load i8, ptr %105, align 1
  %107 = zext i8 %106 to i32
  store i32 %107, ptr %20, align 4
  %108 = load ptr, ptr %7, align 8
  %109 = getelementptr inbounds i8, ptr %108, i64 13
  %110 = load i8, ptr %109, align 1
  %111 = zext i8 %110 to i32
  store i32 %111, ptr %21, align 4
  %112 = load i32, ptr %20, align 4
  %113 = shl i32 %112, 8
  %114 = load i32, ptr %21, align 4
  %115 = load i32, ptr %20, align 4
  %116 = sub nsw i32 %114, %115
  %117 = load i32, ptr %15, align 4
  %118 = mul nsw i32 %116, %117
  %119 = add nsw i32 %113, %118
  store i32 %119, ptr %21, align 4
  %120 = load i32, ptr %22, align 4
  %121 = shl i32 %120, 8
  %122 = load i32, ptr %21, align 4
  %123 = load i32, ptr %22, align 4
  %124 = sub nsw i32 %122, %123
  %125 = load i32, ptr %16, align 4
  %126 = mul nsw i32 %124, %125
  %127 = add nsw i32 %121, %126
  store i32 %127, ptr %22, align 4
  %128 = load i32, ptr %22, align 4
  %129 = add nsw i32 %128, 32768
  %130 = ashr i32 %129, 16
  %131 = trunc i32 %130 to i8
  %132 = load ptr, ptr %14, align 8
  %133 = getelementptr inbounds i8, ptr %132, i64 1
  store i8 %131, ptr %133, align 1
  br label %134

134:                                              ; preds = %87
  br label %135

135:                                              ; preds = %134
  %136 = load ptr, ptr %7, align 8
  %137 = getelementptr inbounds i8, ptr %136, i64 2
  %138 = load i8, ptr %137, align 1
  %139 = zext i8 %138 to i32
  store i32 %139, ptr %23, align 4
  %140 = load ptr, ptr %7, align 8
  %141 = getelementptr inbounds i8, ptr %140, i64 6
  %142 = load i8, ptr %141, align 1
  %143 = zext i8 %142 to i32
  store i32 %143, ptr %24, align 4
  %144 = load i32, ptr %23, align 4
  %145 = shl i32 %144, 8
  %146 = load i32, ptr %24, align 4
  %147 = load i32, ptr %23, align 4
  %148 = sub nsw i32 %146, %147
  %149 = load i32, ptr %15, align 4
  %150 = mul nsw i32 %148, %149
  %151 = add nsw i32 %145, %150
  store i32 %151, ptr %25, align 4
  %152 = load ptr, ptr %7, align 8
  %153 = getelementptr inbounds i8, ptr %152, i64 10
  %154 = load i8, ptr %153, align 1
  %155 = zext i8 %154 to i32
  store i32 %155, ptr %23, align 4
  %156 = load ptr, ptr %7, align 8
  %157 = getelementptr inbounds i8, ptr %156, i64 14
  %158 = load i8, ptr %157, align 1
  %159 = zext i8 %158 to i32
  store i32 %159, ptr %24, align 4
  %160 = load i32, ptr %23, align 4
  %161 = shl i32 %160, 8
  %162 = load i32, ptr %24, align 4
  %163 = load i32, ptr %23, align 4
  %164 = sub nsw i32 %162, %163
  %165 = load i32, ptr %15, align 4
  %166 = mul nsw i32 %164, %165
  %167 = add nsw i32 %161, %166
  store i32 %167, ptr %24, align 4
  %168 = load i32, ptr %25, align 4
  %169 = shl i32 %168, 8
  %170 = load i32, ptr %24, align 4
  %171 = load i32, ptr %25, align 4
  %172 = sub nsw i32 %170, %171
  %173 = load i32, ptr %16, align 4
  %174 = mul nsw i32 %172, %173
  %175 = add nsw i32 %169, %174
  store i32 %175, ptr %25, align 4
  %176 = load i32, ptr %25, align 4
  %177 = add nsw i32 %176, 32768
  %178 = ashr i32 %177, 16
  %179 = trunc i32 %178 to i8
  %180 = load ptr, ptr %14, align 8
  %181 = getelementptr inbounds i8, ptr %180, i64 2
  store i8 %179, ptr %181, align 1
  br label %182

182:                                              ; preds = %135
  br label %183

183:                                              ; preds = %182
  %184 = load ptr, ptr %7, align 8
  %185 = getelementptr inbounds i8, ptr %184, i64 3
  %186 = load i8, ptr %185, align 1
  %187 = zext i8 %186 to i32
  store i32 %187, ptr %26, align 4
  %188 = load ptr, ptr %7, align 8
  %189 = getelementptr inbounds i8, ptr %188, i64 7
  %190 = load i8, ptr %189, align 1
  %191 = zext i8 %190 to i32
  store i32 %191, ptr %27, align 4
  %192 = load i32, ptr %26, align 4
  %193 = shl i32 %192, 8
  %194 = load i32, ptr %27, align 4
  %195 = load i32, ptr %26, align 4
  %196 = sub nsw i32 %194, %195
  %197 = load i32, ptr %15, align 4
  %198 = mul nsw i32 %196, %197
  %199 = add nsw i32 %193, %198
  store i32 %199, ptr %28, align 4
  %200 = load ptr, ptr %7, align 8
  %201 = getelementptr inbounds i8, ptr %200, i64 11
  %202 = load i8, ptr %201, align 1
  %203 = zext i8 %202 to i32
  store i32 %203, ptr %26, align 4
  %204 = load ptr, ptr %7, align 8
  %205 = getelementptr inbounds i8, ptr %204, i64 15
  %206 = load i8, ptr %205, align 1
  %207 = zext i8 %206 to i32
  store i32 %207, ptr %27, align 4
  %208 = load i32, ptr %26, align 4
  %209 = shl i32 %208, 8
  %210 = load i32, ptr %27, align 4
  %211 = load i32, ptr %26, align 4
  %212 = sub nsw i32 %210, %211
  %213 = load i32, ptr %15, align 4
  %214 = mul nsw i32 %212, %213
  %215 = add nsw i32 %209, %214
  store i32 %215, ptr %27, align 4
  %216 = load i32, ptr %28, align 4
  %217 = shl i32 %216, 8
  %218 = load i32, ptr %27, align 4
  %219 = load i32, ptr %28, align 4
  %220 = sub nsw i32 %218, %219
  %221 = load i32, ptr %16, align 4
  %222 = mul nsw i32 %220, %221
  %223 = add nsw i32 %217, %222
  store i32 %223, ptr %28, align 4
  %224 = load i32, ptr %28, align 4
  %225 = add nsw i32 %224, 32768
  %226 = ashr i32 %225, 16
  %227 = trunc i32 %226 to i8
  %228 = load ptr, ptr %14, align 8
  %229 = getelementptr inbounds i8, ptr %228, i64 3
  store i8 %227, ptr %229, align 1
  br label %230

230:                                              ; preds = %183
  %231 = load ptr, ptr %14, align 8
  %232 = getelementptr inbounds i32, ptr %231, i32 1
  store ptr %232, ptr %14, align 8
  %233 = load ptr, ptr %7, align 8
  %234 = getelementptr inbounds i32, ptr %233, i64 4
  store ptr %234, ptr %7, align 8
  %235 = load i32, ptr %10, align 4
  %236 = load i32, ptr %9, align 4
  %237 = add nsw i32 %236, %235
  store i32 %237, ptr %9, align 4
  %238 = load i32, ptr %12, align 4
  %239 = load i32, ptr %11, align 4
  %240 = add nsw i32 %239, %238
  store i32 %240, ptr %11, align 4
  br label %241

241:                                              ; preds = %230
  %242 = load i32, ptr %13, align 4
  %243 = add nsw i32 %242, 1
  store i32 %243, ptr %13, align 4
  br label %30, !llvm.loop !6

244:                                              ; preds = %30
  ret void
}