; Function Attrs: nofree norecurse nosync nounwind memory(readwrite, inaccessiblemem: none) uwtable
define internal void @BilinearInterp(ptr nocapture noundef %0, i32 noundef %1, i32 noundef %2, i32 noundef %3, i32 noundef %4, i32 noundef %5) #0 {
  %7 = icmp sgt i32 %1, 0
  br i1 %7, label %.lr.ph, label %._crit_edge

.lr.ph:                                           ; preds = %6, %.lr.ph
  %.094 = phi ptr [ %121, %.lr.ph ], [ %0, %6 ]
  %.08393 = phi i32 [ %122, %.lr.ph ], [ %2, %6 ]
  %.08492 = phi i32 [ %123, %.lr.ph ], [ %4, %6 ]
  %.08591 = phi i32 [ %124, %.lr.ph ], [ 0, %6 ]
  %.08690 = phi ptr [ %120, %.lr.ph ], [ %0, %6 ]
  %8 = lshr i32 %.08393, 24
  %9 = lshr i32 %.08492, 24
  %10 = load i8, ptr %.094, align 1
  %11 = zext i8 %10 to i32
  %12 = getelementptr inbounds i8, ptr %.094, i64 4
  %13 = load i8, ptr %12, align 1
  %14 = zext i8 %13 to i32
  %15 = shl nuw nsw i32 %11, 8
  %16 = sub nsw i32 %14, %11
  %17 = mul nsw i32 %16, %8
  %18 = add nsw i32 %17, %15
  %19 = getelementptr inbounds i8, ptr %.094, i64 8
  %20 = load i8, ptr %19, align 1
  %21 = zext i8 %20 to i32
  %22 = getelementptr inbounds i8, ptr %.094, i64 12
  %23 = load i8, ptr %22, align 1
  %24 = zext i8 %23 to i32
  %25 = shl nuw nsw i32 %21, 8
  %26 = sub nsw i32 %24, %21
  %27 = mul nsw i32 %26, %8
  %28 = shl nsw i32 %18, 8
  %29 = sub nsw i32 %25, %18
  %30 = add nsw i32 %29, %27
  %31 = mul nsw i32 %30, %9
  %32 = add nsw i32 %28, 32768
  %33 = add i32 %32, %31
  %34 = lshr i32 %33, 16
  %35 = trunc i32 %34 to i8
  store i8 %35, ptr %.08690, align 1
  %36 = getelementptr inbounds i8, ptr %.094, i64 1
  %37 = load i8, ptr %36, align 1
  %38 = zext i8 %37 to i32
  %39 = getelementptr inbounds i8, ptr %.094, i64 5
  %40 = load i8, ptr %39, align 1
  %41 = zext i8 %40 to i32
  %42 = shl nuw nsw i32 %38, 8
  %43 = sub nsw i32 %41, %38
  %44 = mul nsw i32 %43, %8
  %45 = add nsw i32 %44, %42
  %46 = getelementptr inbounds i8, ptr %.094, i64 9
  %47 = load i8, ptr %46, align 1
  %48 = zext i8 %47 to i32
  %49 = getelementptr inbounds i8, ptr %.094, i64 13
  %50 = load i8, ptr %49, align 1
  %51 = zext i8 %50 to i32
  %52 = shl nuw nsw i32 %48, 8
  %53 = sub nsw i32 %51, %48
  %54 = mul nsw i32 %53, %8
  %55 = shl nsw i32 %45, 8
  %56 = sub nsw i32 %52, %45
  %57 = add nsw i32 %56, %54
  %58 = mul nsw i32 %57, %9
  %59 = add nsw i32 %55, 32768
  %60 = add i32 %59, %58
  %61 = lshr i32 %60, 16
  %62 = trunc i32 %61 to i8
  %63 = getelementptr inbounds i8, ptr %.08690, i64 1
  store i8 %62, ptr %63, align 1
  %64 = getelementptr inbounds i8, ptr %.094, i64 2
  %65 = load i8, ptr %64, align 1
  %66 = zext i8 %65 to i32
  %67 = getelementptr inbounds i8, ptr %.094, i64 6
  %68 = load i8, ptr %67, align 1
  %69 = zext i8 %68 to i32
  %70 = shl nuw nsw i32 %66, 8
  %71 = sub nsw i32 %69, %66
  %72 = mul nsw i32 %71, %8
  %73 = add nsw i32 %72, %70
  %74 = getelementptr inbounds i8, ptr %.094, i64 10
  %75 = load i8, ptr %74, align 1
  %76 = zext i8 %75 to i32
  %77 = getelementptr inbounds i8, ptr %.094, i64 14
  %78 = load i8, ptr %77, align 1
  %79 = zext i8 %78 to i32
  %80 = shl nuw nsw i32 %76, 8
  %81 = sub nsw i32 %79, %76
  %82 = mul nsw i32 %81, %8
  %83 = shl nsw i32 %73, 8
  %84 = sub nsw i32 %80, %73
  %85 = add nsw i32 %84, %82
  %86 = mul nsw i32 %85, %9
  %87 = add nsw i32 %83, 32768
  %88 = add i32 %87, %86
  %89 = lshr i32 %88, 16
  %90 = trunc i32 %89 to i8
  %91 = getelementptr inbounds i8, ptr %.08690, i64 2
  store i8 %90, ptr %91, align 1
  %92 = getelementptr inbounds i8, ptr %.094, i64 3
  %93 = load i8, ptr %92, align 1
  %94 = zext i8 %93 to i32
  %95 = getelementptr inbounds i8, ptr %.094, i64 7
  %96 = load i8, ptr %95, align 1
  %97 = zext i8 %96 to i32
  %98 = shl nuw nsw i32 %94, 8
  %99 = sub nsw i32 %97, %94
  %100 = mul nsw i32 %99, %8
  %101 = add nsw i32 %100, %98
  %102 = getelementptr inbounds i8, ptr %.094, i64 11
  %103 = load i8, ptr %102, align 1
  %104 = zext i8 %103 to i32
  %105 = getelementptr inbounds i8, ptr %.094, i64 15
  %106 = load i8, ptr %105, align 1
  %107 = zext i8 %106 to i32
  %108 = shl nuw nsw i32 %104, 8
  %109 = sub nsw i32 %107, %104
  %110 = mul nsw i32 %109, %8
  %111 = shl nsw i32 %101, 8
  %112 = sub nsw i32 %108, %101
  %113 = add nsw i32 %112, %110
  %114 = mul nsw i32 %113, %9
  %115 = add nsw i32 %111, 32768
  %116 = add i32 %115, %114
  %117 = lshr i32 %116, 16
  %118 = trunc i32 %117 to i8
  %119 = getelementptr inbounds i8, ptr %.08690, i64 3
  store i8 %118, ptr %119, align 1
  %120 = getelementptr inbounds i8, ptr %.08690, i64 4
  %121 = getelementptr inbounds i8, ptr %.094, i64 16
  %122 = add nsw i32 %.08393, %3
  %123 = add nsw i32 %.08492, %5
  %124 = add nuw nsw i32 %.08591, 1
  %exitcond.not = icmp eq i32 %124, %1
  br i1 %exitcond.not, label %._crit_edge, label %.lr.ph, !llvm.loop !6

._crit_edge:                                      ; preds = %.lr.ph, %6
  ret void
}